target datalayout = "e-m:e-p270:32:32-p271:32:32-p272:64:64-i64:64-i128:128-f80:128-n8:16:32:64-S128"
target triple = "x86_64-pc-linux-gnu"

%struct.Vec_Int_t_ = type { i32, i32, ptr }

; Function Attrs: inlinehint nounwind uwtable
define internal void @Vec_IntGrow(ptr noundef %0, i32 noundef %1) #2 {
  %3 = alloca ptr, align 8
  %4 = alloca i32, align 4
  store ptr %0, ptr %3, align 8, !tbaa !23
  store i32 %1, ptr %4, align 4, !tbaa !10
  %5 = load ptr, ptr %3, align 8, !tbaa !23
  %6 = getelementptr inbounds nuw %struct.Vec_Int_t_, ptr %5, i32 0, i32 0
  %7 = load i32, ptr %6, align 8, !tbaa !39
  %8 = load i32, ptr %4, align 4, !tbaa !10
  %9 = icmp sge i32 %7, %8
  br i1 %9, label %10, label %11

10:                                               ; preds = %2
  br label %36

11:                                               ; preds = %2
  %12 = load ptr, ptr %3, align 8, !tbaa !23
  %13 = getelementptr inbounds nuw %struct.Vec_Int_t_, ptr %12, i32 0, i32 2
  %14 = load ptr, ptr %13, align 8, !tbaa !40
  %15 = icmp ne ptr %14, null
  br i1 %15, label %16, label %24

16:                                               ; preds = %11
  %17 = load ptr, ptr %3, align 8, !tbaa !23
  %18 = getelementptr inbounds nuw %struct.Vec_Int_t_, ptr %17, i32 0, i32 2
  %19 = load ptr, ptr %18, align 8, !tbaa !40
  %20 = load i32, ptr %4, align 4, !tbaa !10
  %21 = sext i32 %20 to i64
  %22 = mul i64 4, %21
  %23 = call ptr @realloc(ptr noundef %19, i64 noundef %22) #10
  br label %29

24:                                               ; preds = %11
  %25 = load i32, ptr %4, align 4, !tbaa !10
  %26 = sext i32 %25 to i64
  %27 = mul i64 4, %26
  %28 = call noalias ptr @malloc(i64 noundef %27) #9
  br label %29

29:                                               ; preds = %24, %16
  %30 = phi ptr [ %23, %16 ], [ %28, %24 ]
  %31 = load ptr, ptr %3, align 8, !tbaa !23
  %32 = getelementptr inbounds nuw %struct.Vec_Int_t_, ptr %31, i32 0, i32 2
  store ptr %30, ptr %32, align 8, !tbaa !40
  %33 = load i32, ptr %4, align 4, !tbaa !10
  %34 = load ptr, ptr %3, align 8, !tbaa !23
  %35 = getelementptr inbounds nuw %struct.Vec_Int_t_, ptr %34, i32 0, i32 0
  store i32 %33, ptr %35, align 8, !tbaa !39
  br label %36

36:                                               ; preds = %29, %10
  ret void
}

; Function Attrs: inlinehint nounwind uwtable
define internal void @Vec_IntPush(ptr noundef %0, i32 noundef %1) #2 {
  %3 = alloca ptr, align 8
  %4 = alloca i32, align 4
  store ptr %0, ptr %3, align 8, !tbaa !23
  store i32 %1, ptr %4, align 4, !tbaa !10
  %5 = load ptr, ptr %3, align 8, !tbaa !23
  %6 = getelementptr inbounds nuw %struct.Vec_Int_t_, ptr %5, i32 0, i32 1
  %7 = load i32, ptr %6, align 4, !tbaa !37
  %8 = load ptr, ptr %3, align 8, !tbaa !23
  %9 = getelementptr inbounds nuw %struct.Vec_Int_t_, ptr %8, i32 0, i32 0
  %10 = load i32, ptr %9, align 8, !tbaa !39
  %11 = icmp eq i32 %7, %10
  br i1 %11, label %12, label %26

12:                                               ; preds = %2
  %13 = load ptr, ptr %3, align 8, !tbaa !23
  %14 = getelementptr inbounds nuw %struct.Vec_Int_t_, ptr %13, i32 0, i32 0
  %15 = load i32, ptr %14, align 8, !tbaa !39
  %16 = icmp slt i32 %15, 16
  br i1 %16, label %17, label %19

17:                                               ; preds = %12
  %18 = load ptr, ptr %3, align 8, !tbaa !23
  call void @Vec_IntGrow(ptr noundef %18, i32 noundef 16)
  br label %25

19:                                               ; preds = %12
  %20 = load ptr, ptr %3, align 8, !tbaa !23
  %21 = load ptr, ptr %3, align 8, !tbaa !23
  %22 = getelementptr inbounds nuw %struct.Vec_Int_t_, ptr %21, i32 0, i32 0
  %23 = load i32, ptr %22, align 8, !tbaa !39
  %24 = mul nsw i32 2, %23
  call void @Vec_IntGrow(ptr noundef %20, i32 noundef %24)
  br label %25

25:                                               ; preds = %19, %17
  br label %26

26:                                               ; preds = %25, %2
  %27 = load i32, ptr %4, align 4, !tbaa !10
  %28 = load ptr, ptr %3, align 8, !tbaa !23
  %29 = getelementptr inbounds nuw %struct.Vec_Int_t_, ptr %28, i32 0, i32 2
  %30 = load ptr, ptr %29, align 8, !tbaa !40
  %31 = load ptr, ptr %3, align 8, !tbaa !23
  %32 = getelementptr inbounds nuw %struct.Vec_Int_t_, ptr %31, i32 0, i32 1
  %33 = load i32, ptr %32, align 4, !tbaa !37
  %34 = add nsw i32 %33, 1
  store i32 %34, ptr %32, align 4, !tbaa !37
  %35 = sext i32 %33 to i64
  %36 = getelementptr inbounds i32, ptr %30, i64 %35
  store i32 %27, ptr %36, align 4, !tbaa !10
  ret void
}

; Function Attrs: inlinehint nounwind uwtable
define internal i32 @Kit_WordCountOnes(i32 noundef %0) #2 {
  %2 = alloca i32, align 4
  store i32 %0, ptr %2, align 4, !tbaa !10
  %3 = load i32, ptr %2, align 4, !tbaa !10
  %4 = and i32 %3, 1431655765
  %5 = load i32, ptr %2, align 4, !tbaa !10
  %6 = lshr i32 %5, 1
  %7 = and i32 %6, 1431655765
  %8 = add i32 %4, %7
  store i32 %8, ptr %2, align 4, !tbaa !10
  %9 = load i32, ptr %2, align 4, !tbaa !10
  %10 = and i32 %9, 858993459
  %11 = load i32, ptr %2, align 4, !tbaa !10
  %12 = lshr i32 %11, 2
  %13 = and i32 %12, 858993459
  %14 = add i32 %10, %13
  store i32 %14, ptr %2, align 4, !tbaa !10
  %15 = load i32, ptr %2, align 4, !tbaa !10
  %16 = and i32 %15, 252645135
  %17 = load i32, ptr %2, align 4, !tbaa !10
  %18 = lshr i32 %17, 4
  %19 = and i32 %18, 252645135
  %20 = add i32 %16, %19
  store i32 %20, ptr %2, align 4, !tbaa !10
  %21 = load i32, ptr %2, align 4, !tbaa !10
  %22 = and i32 %21, 16711935
  %23 = load i32, ptr %2, align 4, !tbaa !10
  %24 = lshr i32 %23, 8
  %25 = and i32 %24, 16711935
  %26 = add i32 %22, %25
  store i32 %26, ptr %2, align 4, !tbaa !10
  %27 = load i32, ptr %2, align 4, !tbaa !10
  %28 = and i32 %27, 65535
  %29 = load i32, ptr %2, align 4, !tbaa !10
  %30 = lshr i32 %29, 16
  %31 = add i32 %28, %30
  ret i32 %31
}

; Function Attrs: inlinehint nounwind uwtable
define internal i32 @Vec_IntEntry(ptr noundef %0, i32 noundef %1) #2 {
  %3 = alloca ptr, align 8
  %4 = alloca i32, align 4
  store ptr %0, ptr %3, align 8, !tbaa !23
  store i32 %1, ptr %4, align 4, !tbaa !10
  %5 = load ptr, ptr %3, align 8, !tbaa !23
  %6 = getelementptr inbounds nuw %struct.Vec_Int_t_, ptr %5, i32 0, i32 2
  %7 = load ptr, ptr %6, align 8, !tbaa !40
  %8 = load i32, ptr %4, align 4, !tbaa !10
  %9 = sext i32 %8 to i64
  %10 = getelementptr inbounds i32, ptr %7, i64 %9
  %11 = load i32, ptr %10, align 4, !tbaa !10
  ret i32 %11
}

; Function Attrs: inlinehint nounwind uwtable
define internal i32 @Vec_IntSize(ptr noundef %0) #2 {
  %2 = alloca ptr, align 8
  store ptr %0, ptr %2, align 8, !tbaa !23
  %3 = load ptr, ptr %2, align 8, !tbaa !23
  %4 = getelementptr inbounds nuw %struct.Vec_Int_t_, ptr %3, i32 0, i32 1
  %5 = load i32, ptr %4, align 4, !tbaa !37
  ret i32 %5
}

; Function Attrs: inlinehint nounwind uwtable
define internal ptr @Vec_IntAlloc(i32 noundef %0) #2 {
  %2 = alloca i32, align 4
  %3 = alloca ptr, align 8
  store i32 %0, ptr %2, align 4, !tbaa !10
  call void @llvm.lifetime.start.p0(i64 8, ptr %3) #8
  %4 = call noalias ptr @malloc(i64 noundef 16) #9
  store ptr %4, ptr %3, align 8, !tbaa !23
  %5 = load i32, ptr %2, align 4, !tbaa !10
  %6 = icmp sgt i32 %5, 0
  br i1 %6, label %7, label %11

7:                                                ; preds = %1
  %8 = load i32, ptr %2, align 4, !tbaa !10
  %9 = icmp slt i32 %8, 16
  br i1 %9, label %10, label %11

10:                                               ; preds = %7
  store i32 16, ptr %2, align 4, !tbaa !10
  br label %11

11:                                               ; preds = %10, %7, %1
  %12 = load ptr, ptr %3, align 8, !tbaa !23
  %13 = getelementptr inbounds nuw %struct.Vec_Int_t_, ptr %12, i32 0, i32 1
  store i32 0, ptr %13, align 4, !tbaa !37
  %14 = load i32, ptr %2, align 4, !tbaa !10
  %15 = load ptr, ptr %3, align 8, !tbaa !23
  %16 = getelementptr inbounds nuw %struct.Vec_Int_t_, ptr %15, i32 0, i32 0
  store i32 %14, ptr %16, align 8, !tbaa !39
  %17 = load ptr, ptr %3, align 8, !tbaa !23
  %18 = getelementptr inbounds nuw %struct.Vec_Int_t_, ptr %17, i32 0, i32 0
  %19 = load i32, ptr %18, align 8, !tbaa !39
  %20 = icmp ne i32 %19, 0
  br i1 %20, label %21, label %28

21:                                               ; preds = %11
  %22 = load ptr, ptr %3, align 8, !tbaa !23
  %23 = getelementptr inbounds nuw %struct.Vec_Int_t_, ptr %22, i32 0, i32 0
  %24 = load i32, ptr %23, align 8, !tbaa !39
  %25 = sext i32 %24 to i64
  %26 = mul i64 4, %25
  %27 = call noalias ptr @malloc(i64 noundef %26) #9
  br label %29

28:                                               ; preds = %11
  br label %29

29:                                               ; preds = %28, %21
  %30 = phi ptr [ %27, %21 ], [ null, %28 ]
  %31 = load ptr, ptr %3, align 8, !tbaa !23
  %32 = getelementptr inbounds nuw %struct.Vec_Int_t_, ptr %31, i32 0, i32 2
  store ptr %30, ptr %32, align 8, !tbaa !40
  %33 = load ptr, ptr %3, align 8, !tbaa !23
  call void @llvm.lifetime.end.p0(i64 8, ptr %3) #8
  ret ptr %33
}

; Function Attrs: nounwind uwtable
define ptr @Lpk_MergeBoundSets(ptr noundef %0, ptr noundef %1, i32 noundef %2) #0 {
  %4 = alloca ptr, align 8
  %5 = alloca ptr, align 8
  %6 = alloca i32, align 4
  %7 = alloca ptr, align 8
  %8 = alloca i32, align 4
  %9 = alloca i32, align 4
  %10 = alloca i32, align 4
  %11 = alloca i32, align 4
  %12 = alloca i32, align 4
  store ptr %0, ptr %4, align 8, !tbaa !23
  store ptr %1, ptr %5, align 8, !tbaa !23
  store i32 %2, ptr %6, align 4, !tbaa !10
  call void @llvm.lifetime.start.p0(i64 8, ptr %7) #8
  call void @llvm.lifetime.start.p0(i64 4, ptr %8) #8
  call void @llvm.lifetime.start.p0(i64 4, ptr %9) #8
  call void @llvm.lifetime.start.p0(i64 4, ptr %10) #8
  call void @llvm.lifetime.start.p0(i64 4, ptr %11) #8
  call void @llvm.lifetime.start.p0(i64 4, ptr %12) #8
  %13 = call ptr @Vec_IntAlloc(i32 noundef 100)
  store ptr %13, ptr %7, align 8, !tbaa !23
  store i32 0, ptr %11, align 4, !tbaa !10
  br label %14

14:                                               ; preds = %61, %3
  %15 = load i32, ptr %11, align 4, !tbaa !10
  %16 = load ptr, ptr %4, align 8, !tbaa !23
  %17 = call i32 @Vec_IntSize(ptr noundef %16)
  %18 = icmp slt i32 %15, %17
  br i1 %18, label %19, label %23

19:                                               ; preds = %14
  %20 = load ptr, ptr %4, align 8, !tbaa !23
  %21 = load i32, ptr %11, align 4, !tbaa !10
  %22 = call i32 @Vec_IntEntry(ptr noundef %20, i32 noundef %21)
  store i32 %22, ptr %8, align 4, !tbaa !10
  br label %23

23:                                               ; preds = %19, %14
  %24 = phi i1 [ false, %14 ], [ true, %19 ]
  br i1 %24, label %25, label %64

25:                                               ; preds = %23
  store i32 0, ptr %12, align 4, !tbaa !10
  br label %26

26:                                               ; preds = %57, %25
  %27 = load i32, ptr %12, align 4, !tbaa !10
  %28 = load ptr, ptr %5, align 8, !tbaa !23
  %29 = call i32 @Vec_IntSize(ptr noundef %28)
  %30 = icmp slt i32 %27, %29
  br i1 %30, label %31, label %35

31:                                               ; preds = %26
  %32 = load ptr, ptr %5, align 8, !tbaa !23
  %33 = load i32, ptr %12, align 4, !tbaa !10
  %34 = call i32 @Vec_IntEntry(ptr noundef %32, i32 noundef %33)
  store i32 %34, ptr %9, align 4, !tbaa !10
  br label %35

35:                                               ; preds = %31, %26
  %36 = phi i1 [ false, %26 ], [ true, %31 ]
  br i1 %36, label %37, label %60

37:                                               ; preds = %35
  %38 = load i32, ptr %8, align 4, !tbaa !10
  %39 = load i32, ptr %9, align 4, !tbaa !10
  %40 = or i32 %38, %39
  store i32 %40, ptr %10, align 4, !tbaa !10
  %41 = load i32, ptr %10, align 4, !tbaa !10
  %42 = load i32, ptr %10, align 4, !tbaa !10
  %43 = ashr i32 %42, 16
  %44 = and i32 %41, %43
  %45 = icmp ne i32 %44, 0
  br i1 %45, label %46, label %47

46:                                               ; preds = %37
  br label %57

47:                                               ; preds = %37
  %48 = load i32, ptr %10, align 4, !tbaa !10
  %49 = and i32 %48, 65535
  %50 = call i32 @Kit_WordCountOnes(i32 noundef %49)
  %51 = load i32, ptr %6, align 4, !tbaa !10
  %52 = icmp sle i32 %50, %51
  br i1 %52, label %53, label %56

53:                                               ; preds = %47
  %54 = load ptr, ptr %7, align 8, !tbaa !23
  %55 = load i32, ptr %10, align 4, !tbaa !10
  call void @Vec_IntPush(ptr noundef %54, i32 noundef %55)
  br label %56

56:                                               ; preds = %53, %47
  br label %57

57:                                               ; preds = %56, %46
  %58 = load i32, ptr %12, align 4, !tbaa !10
  %59 = add nsw i32 %58, 1
  store i32 %59, ptr %12, align 4, !tbaa !10
  br label %26, !llvm.loop !43

60:                                               ; preds = %35
  br label %61

61:                                               ; preds = %60
  %62 = load i32, ptr %11, align 4, !tbaa !10
  %63 = add nsw i32 %62, 1
  store i32 %63, ptr %11, align 4, !tbaa !10
  br label %14, !llvm.loop !44

64:                                               ; preds = %23
  %65 = load ptr, ptr %7, align 8, !tbaa !23
  call void @llvm.lifetime.end.p0(i64 4, ptr %12) #8
  call void @llvm.lifetime.end.p0(i64 4, ptr %11) #8
  call void @llvm.lifetime.end.p0(i64 4, ptr %10) #8
  call void @llvm.lifetime.end.p0(i64 4, ptr %9) #8
  call void @llvm.lifetime.end.p0(i64 4, ptr %8) #8
  call void @llvm.lifetime.end.p0(i64 8, ptr %7) #8
  ret ptr %65
}