; Function Attrs: nounwind uwtable
define noalias noundef ptr @Lpk_MergeBoundSets(ptr noundef readonly captures(none) %0, ptr noundef readonly captures(none) %1, i32 noundef %2) local_unnamed_addr #0 {
  %4 = tail call noalias dereferenceable_or_null(16) ptr @malloc(i64 noundef 16) #12
  %5 = getelementptr inbounds nuw i8, ptr %4, i64 4
  store i32 0, ptr %5, align 4, !tbaa !27
  store i32 100, ptr %4, align 8, !tbaa !29
  %6 = tail call noalias dereferenceable_or_null(400) ptr @malloc(i64 noundef 400) #12
  %7 = getelementptr inbounds nuw i8, ptr %4, i64 8
  store ptr %6, ptr %7, align 8, !tbaa !30
  %8 = getelementptr i8, ptr %0, i64 4
  %.val2227 = load i32, ptr %8, align 4, !tbaa !27
  %9 = icmp sgt i32 %.val2227, 0
  br i1 %9, label %.lr.ph29, label %.critedge

.lr.ph29:                                         ; preds = %3
  %10 = getelementptr i8, ptr %0, i64 8
  %11 = getelementptr i8, ptr %1, i64 4
  %12 = getelementptr i8, ptr %1, i64 8
  %13 = load i32, ptr %11, align 4, !tbaa !27
  %14 = icmp sgt i32 %13, 0
  br i1 %14, label %.lr.ph29.split, label %.critedge

.lr.ph29.split:                                   ; preds = %.lr.ph29, %.critedge2
  %.val2246 = phi i32 [ %.val22, %.critedge2 ], [ %.val2227, %.lr.ph29 ]
  %.val42 = phi i32 [ %.val43, %.critedge2 ], [ %13, %.lr.ph29 ]
  %.pre.i37 = phi ptr [ %.pre.i38, %.critedge2 ], [ %6, %.lr.ph29 ]
  %.val25 = phi i32 [ %.val2536, %.critedge2 ], [ %13, %.lr.ph29 ]
  %indvars.iv32 = phi i64 [ %indvars.iv.next33, %.critedge2 ], [ 0, %.lr.ph29 ]
  %.val24 = load ptr, ptr %10, align 8, !tbaa !30
  %15 = getelementptr inbounds nuw i32, ptr %.val24, i64 %indvars.iv32
  %16 = load i32, ptr %15, align 4, !tbaa !12
  %17 = icmp sgt i32 %.val25, 0
  br i1 %17, label %.lr.ph, label %.critedge2

.lr.ph:                                           ; preds = %.lr.ph29.split, %62
  %.val44 = phi i32 [ %.val, %62 ], [ %.val42, %.lr.ph29.split ]
  %18 = phi ptr [ %.pre.i40, %62 ], [ %.pre.i37, %.lr.ph29.split ]
  %indvars.iv = phi i64 [ %indvars.iv.next, %62 ], [ 0, %.lr.ph29.split ]
  %.val23 = load ptr, ptr %12, align 8, !tbaa !30
  %19 = getelementptr inbounds nuw i32, ptr %.val23, i64 %indvars.iv
  %20 = load i32, ptr %19, align 4, !tbaa !12
  %21 = or i32 %20, %16
  %22 = ashr i32 %21, 16
  %23 = and i32 %22, %21
  %.not = icmp eq i32 %23, 0
  br i1 %.not, label %24, label %62

24:                                               ; preds = %.lr.ph
  %25 = and i32 %21, 21845
  %26 = lshr i32 %21, 1
  %27 = and i32 %26, 21845
  %28 = add nuw nsw i32 %27, %25
  %29 = and i32 %28, 13107
  %30 = lshr i32 %28, 2
  %31 = and i32 %30, 13107
  %32 = add nuw nsw i32 %31, %29
  %33 = and i32 %32, 1799
  %34 = lshr i32 %32, 4
  %35 = and i32 %34, 1799
  %36 = add nuw nsw i32 %35, %33
  %37 = and i32 %36, 15
  %38 = lshr i32 %36, 8
  %39 = add nuw nsw i32 %38, %37
  %.not21 = icmp sgt i32 %39, %2
  br i1 %.not21, label %62, label %40

40:                                               ; preds = %24
  %41 = load i32, ptr %5, align 4, !tbaa !27
  %42 = load i32, ptr %4, align 8, !tbaa !29
  %43 = icmp eq i32 %41, %42
  br i1 %43, label %44, label %Vec_IntPush.exit

44:                                               ; preds = %40
  %45 = icmp slt i32 %41, 16
  br i1 %45, label %46, label %51

46:                                               ; preds = %44
  %.not9.i.i = icmp eq ptr %18, null
  br i1 %.not9.i.i, label %49, label %47

47:                                               ; preds = %46
  %48 = tail call dereferenceable_or_null(64) ptr @realloc(ptr noundef nonnull %18, i64 noundef 64) #11
  br label %Vec_IntPush.exit.sink.split

49:                                               ; preds = %46
  %50 = tail call noalias dereferenceable_or_null(64) ptr @malloc(i64 noundef 64) #12
  br label %Vec_IntPush.exit.sink.split

51:                                               ; preds = %44
  %52 = shl nuw nsw i32 %41, 1
  %.not9.i9.i = icmp eq ptr %18, null
  %53 = zext nneg i32 %52 to i64
  %54 = shl nuw nsw i64 %53, 2
  br i1 %.not9.i9.i, label %57, label %55

55:                                               ; preds = %51
  %56 = tail call ptr @realloc(ptr noundef nonnull %18, i64 noundef %54) #11
  br label %Vec_IntPush.exit.sink.split

57:                                               ; preds = %51
  %58 = tail call noalias ptr @malloc(i64 noundef %54) #12
  br label %Vec_IntPush.exit.sink.split

Vec_IntPush.exit.sink.split:                      ; preds = %55, %57, %47, %49
  %.sink48 = phi ptr [ %48, %47 ], [ %50, %49 ], [ %56, %55 ], [ %58, %57 ]
  %.sink = phi i32 [ 16, %47 ], [ 16, %49 ], [ %52, %55 ], [ %52, %57 ]
  store ptr %.sink48, ptr %7, align 8, !tbaa !30
  store i32 %.sink, ptr %4, align 8, !tbaa !29
  br label %Vec_IntPush.exit

Vec_IntPush.exit:                                 ; preds = %Vec_IntPush.exit.sink.split, %40
  %.pre.i41 = phi ptr [ %18, %40 ], [ %.sink48, %Vec_IntPush.exit.sink.split ]
  %59 = add nsw i32 %41, 1
  store i32 %59, ptr %5, align 4, !tbaa !27
  %60 = sext i32 %41 to i64
  %61 = getelementptr inbounds i32, ptr %.pre.i41, i64 %60
  store i32 %21, ptr %61, align 4, !tbaa !12
  %.val.pre = load i32, ptr %11, align 4, !tbaa !27
  br label %62

62:                                               ; preds = %24, %Vec_IntPush.exit, %.lr.ph
  %.val = phi i32 [ %.val44, %24 ], [ %.val.pre, %Vec_IntPush.exit ], [ %.val44, %.lr.ph ]
  %.pre.i40 = phi ptr [ %18, %24 ], [ %.pre.i41, %Vec_IntPush.exit ], [ %18, %.lr.ph ]
  %indvars.iv.next = add nuw nsw i64 %indvars.iv, 1
  %63 = sext i32 %.val to i64
  %64 = icmp slt i64 %indvars.iv.next, %63
  br i1 %64, label %.lr.ph, label %.critedge2.loopexit, !llvm.loop !35

.critedge2.loopexit:                              ; preds = %62
  %.val22.pre = load i32, ptr %8, align 4, !tbaa !27
  br label %.critedge2

.critedge2:                                       ; preds = %.critedge2.loopexit, %.lr.ph29.split
  %.val22 = phi i32 [ %.val22.pre, %.critedge2.loopexit ], [ %.val2246, %.lr.ph29.split ]
  %.val43 = phi i32 [ %.val, %.critedge2.loopexit ], [ %.val42, %.lr.ph29.split ]
  %.pre.i38 = phi ptr [ %.pre.i40, %.critedge2.loopexit ], [ %.pre.i37, %.lr.ph29.split ]
  %.val2536 = phi i32 [ %.val, %.critedge2.loopexit ], [ %.val25, %.lr.ph29.split ]
  %indvars.iv.next33 = add nuw nsw i64 %indvars.iv32, 1
  %65 = sext i32 %.val22 to i64
  %66 = icmp slt i64 %indvars.iv.next33, %65
  br i1 %66, label %.lr.ph29.split, label %.critedge, !llvm.loop !36

.critedge:                                        ; preds = %.critedge2, %.lr.ph29, %3
  ret ptr %4
}